target datalayout = "e-m:e-p270:32:32-p271:32:32-p272:64:64-i64:64-i128:128-f80:128-n8:16:32:64-S128"
target triple = "x86_64-pc-linux-gnu"

@proto_register_djiuav.ett = internal global [1 x ptr] [ptr @ett_djiuav], align 8
@.str.29 = private unnamed_addr constant [31 x i8] c"DJI UAV Drone Control Protocol\00", align 1
@.str.30 = private unnamed_addr constant [7 x i8] c"DJIUAV\00", align 1
@.str.31 = private unnamed_addr constant [7 x i8] c"djiuav\00", align 1
@proto_djiuav = internal global i32 0, align 4
@.str.32 = private unnamed_addr constant [10 x i8] c"desegment\00", align 1
@.str.33 = private unnamed_addr constant [27 x i8] c"Reassemble DJIUAV messages\00", align 1
@.str.34 = private unnamed_addr constant [106 x i8] c"Whether DJIUAV should reassemble messages spanning multiple TCP segments (required to get useful results)\00", align 1
@djiuav_desegment = internal global i8 1, align 1
@djiuav_handle = internal global ptr null, align 8

; Function Attrs: null_pointer_is_valid sspstrong uwtable
define hidden void @proto_register_djiuav() #0 {
  %1 = alloca ptr, align 8
  call void @llvm.lifetime.start.p0(i64 8, ptr %1) #7
  %2 = call i32 @proto_register_protocol(ptr noundef @.str.29, ptr noundef @.str.30, ptr noundef @.str.31)
  store i32 %2, ptr @proto_djiuav, align 4
  %3 = load i32, ptr @proto_djiuav, align 4
  call void @proto_register_field_array(i32 noundef %3, ptr noundef @proto_register_djiuav.hf, i32 noundef 13)
  call void @proto_register_subtree_array(ptr noundef @proto_register_djiuav.ett, i32 noundef 1)
  %4 = load i32, ptr @proto_djiuav, align 4
  %5 = call ptr @prefs_register_protocol(i32 noundef %4, ptr noundef null)
  store ptr %5, ptr %1, align 8
  %6 = load ptr, ptr %1, align 8
  call void @prefs_register_bool_preference(ptr noundef %6, ptr noundef @.str.32, ptr noundef @.str.33, ptr noundef @.str.34, ptr noundef @djiuav_desegment)
  %7 = load i32, ptr @proto_djiuav, align 4
  %8 = call ptr @register_dissector(ptr noundef @.str.31, ptr noundef @dissect_djiuav_static, i32 noundef %7)
  store ptr %8, ptr @djiuav_handle, align 8
  call void @llvm.lifetime.end.p0(i64 8, ptr %1) #7
  ret void
}