; Function Attrs: null_pointer_is_valid sspstrong uwtable
define hidden void @proto_register_djiuav() local_unnamed_addr #0 {
  %1 = tail call i32 @proto_register_protocol(ptr noundef nonnull @.str.29, ptr noundef nonnull @.str.30, ptr noundef nonnull @.str.31)
  store i32 %1, ptr @proto_djiuav, align 4
  tail call void @proto_register_field_array(i32 noundef %1, ptr noundef nonnull @proto_register_djiuav.hf, i32 noundef 13)
  tail call void @proto_register_subtree_array(ptr noundef nonnull @proto_register_djiuav.ett, i32 noundef 1)
  %2 = load i32, ptr @proto_djiuav, align 4
  %3 = tail call ptr @prefs_register_protocol(i32 noundef %2, ptr noundef null)
  tail call void @prefs_register_bool_preference(ptr noundef %3, ptr noundef nonnull @.str.32, ptr noundef nonnull @.str.33, ptr noundef nonnull @.str.34, ptr noundef nonnull @djiuav_desegment)
  %4 = load i32, ptr @proto_djiuav, align 4
  %5 = tail call ptr @register_dissector(ptr noundef nonnull @.str.31, ptr noundef nonnull @dissect_djiuav_static, i32 noundef %4)
  store ptr %5, ptr @djiuav_handle, align 8
  ret void
}